target datalayout = "e-m:e-p270:32:32-p271:32:32-p272:64:64-i64:64-i128:128-f80:128-n8:16:32:64-S128"
target triple = "x86_64-pc-linux-gnu"

@.str.114 = private unnamed_addr constant [46 x i8] c"Xen hardware-assisted virtualization detected\00", align 1
@.str.115 = private unnamed_addr constant [28 x i8] c"KVM virtualization detected\00", align 1
@.str.116 = private unnamed_addr constant [31 x i8] c"VMWare virtualization detected\00", align 1
@.str.117 = private unnamed_addr constant [32 x i8] c"Hyper-V virtualization detected\00", align 1
@.str.118 = private unnamed_addr constant [22 x i8] c"Hyper-V role detected\00", align 1
@_ZN19Abstract_VM_Version24_detected_virtualizationE = external global i32, align 4

; Function Attrs: mustprogress nounwind uwtable
define linkonce_odr hidden noundef i32 @_ZN19Abstract_VM_Version27get_detected_virtualizationEv() #1 comdat align 2 {
  %1 = load i32, ptr @_ZN19Abstract_VM_Version24_detected_virtualizationE, align 4
  ret i32 %1
}

; Function Attrs: mustprogress nounwind uwtable
define hidden void @_ZN10VM_Version34print_platform_virtualization_infoEP12outputStream(ptr noundef %0) #1 align 2 {
  %2 = alloca ptr, align 8
  %3 = alloca i32, align 4
  store ptr %0, ptr %2, align 8
  %4 = call noundef i32 @_ZN19Abstract_VM_Version27get_detected_virtualizationEv()
  store i32 %4, ptr %3, align 4
  %5 = load i32, ptr %3, align 4
  %6 = icmp eq i32 %5, 1
  br i1 %6, label %7, label %9

7:                                                ; preds = %1
  %8 = load ptr, ptr %2, align 8
  call void (ptr, ptr, ...) @_ZN12outputStream8print_crEPKcz(ptr noundef nonnull align 8 dereferenceable(56) %8, ptr noundef @.str.114)
  br label %34

9:                                                ; preds = %1
  %10 = load i32, ptr %3, align 4
  %11 = icmp eq i32 %10, 3
  br i1 %11, label %12, label %14

12:                                               ; preds = %9
  %13 = load ptr, ptr %2, align 8
  call void (ptr, ptr, ...) @_ZN12outputStream8print_crEPKcz(ptr noundef nonnull align 8 dereferenceable(56) %13, ptr noundef @.str.115)
  br label %33

14:                                               ; preds = %9
  %15 = load i32, ptr %3, align 4
  %16 = icmp eq i32 %15, 4
  br i1 %16, label %17, label %20

17:                                               ; preds = %14
  %18 = load ptr, ptr %2, align 8
  call void (ptr, ptr, ...) @_ZN12outputStream8print_crEPKcz(ptr noundef nonnull align 8 dereferenceable(56) %18, ptr noundef @.str.116)
  %19 = load ptr, ptr %2, align 8
  call void @_ZN21VirtualizationSupport25print_virtualization_infoEP12outputStream(ptr noundef %19)
  br label %32

20:                                               ; preds = %14
  %21 = load i32, ptr %3, align 4
  %22 = icmp eq i32 %21, 5
  br i1 %22, label %23, label %25

23:                                               ; preds = %20
  %24 = load ptr, ptr %2, align 8
  call void (ptr, ptr, ...) @_ZN12outputStream8print_crEPKcz(ptr noundef nonnull align 8 dereferenceable(56) %24, ptr noundef @.str.117)
  br label %31

25:                                               ; preds = %20
  %26 = load i32, ptr %3, align 4
  %27 = icmp eq i32 %26, 6
  br i1 %27, label %28, label %30

28:                                               ; preds = %25
  %29 = load ptr, ptr %2, align 8
  call void (ptr, ptr, ...) @_ZN12outputStream8print_crEPKcz(ptr noundef nonnull align 8 dereferenceable(56) %29, ptr noundef @.str.118)
  br label %30

30:                                               ; preds = %28, %25
  br label %31

31:                                               ; preds = %30, %23
  br label %32

32:                                               ; preds = %31, %17
  br label %33

33:                                               ; preds = %32, %12
  br label %34

34:                                               ; preds = %33, %7
  ret void
}