; Function Attrs: mustprogress nounwind uwtable
define hidden void @_ZN10VM_Version34print_platform_virtualization_infoEP12outputStream(ptr noundef %0) local_unnamed_addr #1 align 2 {
  %2 = load i32, ptr @_ZN19Abstract_VM_Version24_detected_virtualizationE, align 4
  switch i32 %2, label %8 [
    i32 1, label %3
    i32 3, label %4
    i32 4, label %5
    i32 5, label %6
    i32 6, label %7
  ]

3:                                                ; preds = %1
  tail call void (ptr, ptr, ...) @_ZN12outputStream8print_crEPKcz(ptr noundef nonnull align 8 dereferenceable(56) %0, ptr noundef nonnull @.str.114) #14
  br label %8

4:                                                ; preds = %1
  tail call void (ptr, ptr, ...) @_ZN12outputStream8print_crEPKcz(ptr noundef nonnull align 8 dereferenceable(56) %0, ptr noundef nonnull @.str.115) #14
  br label %8

5:                                                ; preds = %1
  tail call void (ptr, ptr, ...) @_ZN12outputStream8print_crEPKcz(ptr noundef nonnull align 8 dereferenceable(56) %0, ptr noundef nonnull @.str.116) #14
  tail call void @_ZN21VirtualizationSupport25print_virtualization_infoEP12outputStream(ptr noundef nonnull %0) #14
  br label %8

6:                                                ; preds = %1
  tail call void (ptr, ptr, ...) @_ZN12outputStream8print_crEPKcz(ptr noundef nonnull align 8 dereferenceable(56) %0, ptr noundef nonnull @.str.117) #14
  br label %8

7:                                                ; preds = %1
  tail call void (ptr, ptr, ...) @_ZN12outputStream8print_crEPKcz(ptr noundef nonnull align 8 dereferenceable(56) %0, ptr noundef nonnull @.str.118) #14
  br label %8

8:                                                ; preds = %1, %4, %6, %7, %5, %3
  ret void
}